; Function Attrs: mustprogress nounwind uwtable
define internal void @_ZNK12_GLOBAL__N_116VariadicArgument10writeValueERN4llvm11raw_ostreamE(ptr noundef nonnull align 8 dereferenceable(224) %0, ptr noundef nonnull align 8 dereferenceable(48) %1) unnamed_addr #0 align 2 {
  %3 = getelementptr inbounds nuw i8, ptr %1, i64 24
  %4 = load ptr, ptr %3, align 8
  %5 = getelementptr inbounds nuw i8, ptr %1, i64 32
  %6 = load ptr, ptr %5, align 8
  %7 = ptrtoint ptr %4 to i64
  %8 = ptrtoint ptr %6 to i64
  %9 = sub i64 %7, %8
  %10 = icmp ult i64 %9, 3
  br i1 %10, label %11, label %13

11:                                               ; preds = %2
  %12 = tail call noundef nonnull align 8 dereferenceable(48) ptr @_ZN4llvm11raw_ostream5writeEPKcm(ptr noundef nonnull align 8 dereferenceable(48) %1, ptr noundef nonnull @.str.439, i64 noundef 3) #22
  %.pre = load ptr, ptr %5, align 8
  br label %_ZN4llvm11raw_ostreamlsEPKc.exit

13:                                               ; preds = %2
  tail call void @llvm.memcpy.p0.p0.i64(ptr noundef nonnull align 1 dereferenceable(3) %6, ptr noundef nonnull align 1 dereferenceable(3) @.str.439, i64 3, i1 false)
  %14 = load ptr, ptr %5, align 8
  %15 = getelementptr inbounds i8, ptr %14, i64 3
  store ptr %15, ptr %5, align 8
  br label %_ZN4llvm11raw_ostreamlsEPKc.exit

_ZN4llvm11raw_ostreamlsEPKc.exit:                 ; preds = %11, %13
  %16 = phi ptr [ %.pre, %11 ], [ %15, %13 ]
  %17 = load ptr, ptr %3, align 8
  %18 = ptrtoint ptr %17 to i64
  %19 = ptrtoint ptr %16 to i64
  %20 = sub i64 %18, %19
  %21 = icmp ult i64 %20, 25
  br i1 %21, label %22, label %24

22:                                               ; preds = %_ZN4llvm11raw_ostreamlsEPKc.exit
  %23 = tail call noundef nonnull align 8 dereferenceable(48) ptr @_ZN4llvm11raw_ostream5writeEPKcm(ptr noundef nonnull align 8 dereferenceable(48) %1, ptr noundef nonnull @.str.831, i64 noundef 25) #22
  br label %_ZN4llvm11raw_ostreamlsEPKc.exit8

24:                                               ; preds = %_ZN4llvm11raw_ostreamlsEPKc.exit
  tail call void @llvm.memcpy.p0.p0.i64(ptr noundef nonnull align 1 dereferenceable(25) %16, ptr noundef nonnull align 1 dereferenceable(25) @.str.831, i64 25, i1 false)
  %25 = load ptr, ptr %5, align 8
  %26 = getelementptr inbounds i8, ptr %25, i64 25
  store ptr %26, ptr %5, align 8
  br label %_ZN4llvm11raw_ostreamlsEPKc.exit8

_ZN4llvm11raw_ostreamlsEPKc.exit8:                ; preds = %22, %24
  %.0.i.i7 = phi ptr [ %23, %22 ], [ %1, %24 ]
  %27 = getelementptr inbounds nuw i8, ptr %0, i64 192
  %28 = tail call noundef ptr @_ZNKSt7__cxx1112basic_stringIcSt11char_traitsIcESaIcEE4dataEv(ptr noundef nonnull align 8 dereferenceable(32) %27) #22
  %29 = tail call noundef i64 @_ZNKSt7__cxx1112basic_stringIcSt11char_traitsIcESaIcEE6lengthEv(ptr noundef nonnull align 8 dereferenceable(32) %27) #22
  %30 = tail call noundef nonnull align 8 dereferenceable(48) ptr @_ZN4llvm11raw_ostream5writeEPKcm(ptr noundef nonnull align 8 dereferenceable(48) %.0.i.i7, ptr noundef %28, i64 noundef %29) #22
  %31 = getelementptr inbounds nuw i8, ptr %30, i64 24
  %32 = load ptr, ptr %31, align 8
  %33 = getelementptr inbounds nuw i8, ptr %30, i64 32
  %34 = load ptr, ptr %33, align 8
  %35 = ptrtoint ptr %32 to i64
  %36 = ptrtoint ptr %34 to i64
  %37 = sub i64 %35, %36
  %38 = icmp ult i64 %37, 6
  br i1 %38, label %39, label %41

39:                                               ; preds = %_ZN4llvm11raw_ostreamlsEPKc.exit8
  %40 = tail call noundef nonnull align 8 dereferenceable(48) ptr @_ZN4llvm11raw_ostream5writeEPKcm(ptr noundef nonnull align 8 dereferenceable(48) %30, ptr noundef nonnull @.str.675, i64 noundef 6) #22
  %.phi.trans.insert = getelementptr inbounds nuw i8, ptr %40, i64 32
  %.pre21 = load ptr, ptr %.phi.trans.insert, align 8
  br label %_ZN4llvm11raw_ostreamlsEPKc.exit11

41:                                               ; preds = %_ZN4llvm11raw_ostreamlsEPKc.exit8
  tail call void @llvm.memcpy.p0.p0.i64(ptr noundef nonnull align 1 dereferenceable(6) %34, ptr noundef nonnull align 1 dereferenceable(6) @.str.675, i64 6, i1 false)
  %42 = load ptr, ptr %33, align 8
  %43 = getelementptr inbounds i8, ptr %42, i64 6
  store ptr %43, ptr %33, align 8
  br label %_ZN4llvm11raw_ostreamlsEPKc.exit11

_ZN4llvm11raw_ostreamlsEPKc.exit11:               ; preds = %39, %41
  %44 = phi ptr [ %.pre21, %39 ], [ %43, %41 ]
  %.0.i.i10 = phi ptr [ %40, %39 ], [ %30, %41 ]
  %45 = getelementptr inbounds nuw i8, ptr %.0.i.i10, i64 24
  %46 = load ptr, ptr %45, align 8
  %47 = ptrtoint ptr %46 to i64
  %48 = ptrtoint ptr %44 to i64
  %49 = sub i64 %47, %48
  %50 = icmp ult i64 %49, 51
  br i1 %50, label %51, label %53

51:                                               ; preds = %_ZN4llvm11raw_ostreamlsEPKc.exit11
  %52 = tail call noundef nonnull align 8 dereferenceable(48) ptr @_ZN4llvm11raw_ostream5writeEPKcm(ptr noundef nonnull align 8 dereferenceable(48) %.0.i.i10, ptr noundef nonnull @.str.479, i64 noundef 51) #22
  br label %_ZN4llvm11raw_ostreamlsEPKc.exit14

53:                                               ; preds = %_ZN4llvm11raw_ostreamlsEPKc.exit11
  %54 = getelementptr inbounds nuw i8, ptr %.0.i.i10, i64 32
  tail call void @llvm.memcpy.p0.p0.i64(ptr noundef nonnull align 1 dereferenceable(51) %44, ptr noundef nonnull align 1 dereferenceable(51) @.str.479, i64 51, i1 false)
  %55 = load ptr, ptr %54, align 8
  %56 = getelementptr inbounds i8, ptr %55, i64 51
  store ptr %56, ptr %54, align 8
  br label %_ZN4llvm11raw_ostreamlsEPKc.exit14

_ZN4llvm11raw_ostreamlsEPKc.exit14:               ; preds = %51, %53
  %57 = load ptr, ptr %0, align 8
  %58 = getelementptr inbounds i8, ptr %57, i64 200
  %59 = load ptr, ptr %58, align 8
  tail call void %59(ptr noundef nonnull align 8 dereferenceable(224) %0, ptr noundef nonnull align 8 dereferenceable(48) %1) #22
  %60 = load ptr, ptr %3, align 8
  %61 = load ptr, ptr %5, align 8
  %62 = ptrtoint ptr %60 to i64
  %63 = ptrtoint ptr %61 to i64
  %64 = sub i64 %62, %63
  %65 = icmp ult i64 %64, 4
  br i1 %65, label %66, label %68

66:                                               ; preds = %_ZN4llvm11raw_ostreamlsEPKc.exit14
  %67 = tail call noundef nonnull align 8 dereferenceable(48) ptr @_ZN4llvm11raw_ostream5writeEPKcm(ptr noundef nonnull align 8 dereferenceable(48) %1, ptr noundef nonnull @.str.6, i64 noundef 4) #22
  %.pre22 = load ptr, ptr %5, align 8
  br label %_ZN4llvm11raw_ostreamlsEPKc.exit17

68:                                               ; preds = %_ZN4llvm11raw_ostreamlsEPKc.exit14
  store i32 175972384, ptr %61, align 1
  %69 = load ptr, ptr %5, align 8
  %70 = getelementptr inbounds i8, ptr %69, i64 4
  store ptr %70, ptr %5, align 8
  br label %_ZN4llvm11raw_ostreamlsEPKc.exit17

_ZN4llvm11raw_ostreamlsEPKc.exit17:               ; preds = %66, %68
  %71 = phi ptr [ %.pre22, %66 ], [ %70, %68 ]
  %72 = load ptr, ptr %3, align 8
  %73 = ptrtoint ptr %72 to i64
  %74 = ptrtoint ptr %71 to i64
  %75 = sub i64 %73, %74
  %76 = icmp ult i64 %75, 9
  br i1 %76, label %77, label %79

77:                                               ; preds = %_ZN4llvm11raw_ostreamlsEPKc.exit17
  %78 = tail call noundef nonnull align 8 dereferenceable(48) ptr @_ZN4llvm11raw_ostream5writeEPKcm(ptr noundef nonnull align 8 dereferenceable(48) %1, ptr noundef nonnull @.str.488, i64 noundef 9) #22
  br label %_ZN4llvm11raw_ostreamlsEPKc.exit20

79:                                               ; preds = %_ZN4llvm11raw_ostreamlsEPKc.exit17
  tail call void @llvm.memcpy.p0.p0.i64(ptr noundef nonnull align 1 dereferenceable(9) %71, ptr noundef nonnull align 1 dereferenceable(9) @.str.488, i64 9, i1 false)
  %80 = load ptr, ptr %5, align 8
  %81 = getelementptr inbounds i8, ptr %80, i64 9
  store ptr %81, ptr %5, align 8
  br label %_ZN4llvm11raw_ostreamlsEPKc.exit20

_ZN4llvm11raw_ostreamlsEPKc.exit20:               ; preds = %77, %79
  ret void
}